target datalayout = "e-m:e-p270:32:32-p271:32:32-p272:64:64-i64:64-i128:128-f80:128-n8:16:32:64-S128"
target triple = "x86_64-pc-linux-gnu"

%struct._lv_chart_t = type { %struct._lv_obj_t, %struct.lv_ll_t, %struct.lv_ll_t, [2 x i32], [2 x i32], [2 x i32], [2 x i32], i32, i32, i32, i32, i8 }
%struct._lv_obj_t = type { ptr, ptr, ptr, ptr, ptr, %struct.lv_area_t, i32, i16, i16 }
%struct.lv_area_t = type { i32, i32, i32, i32 }
%struct.lv_ll_t = type { i32, ptr, ptr }
%struct._lv_chart_series_t = type { ptr, ptr, %struct.lv_color_t, i32, i8 }
%struct.lv_color_t = type { i8, i8, i8 }

; Function Attrs: inlinehint nounwind uwtable
define internal void @lv_memzero(ptr noundef %0, i64 noundef %1) #3 {
  %3 = alloca ptr, align 8
  %4 = alloca i64, align 8
  store ptr %0, ptr %3, align 8, !tbaa !3
  store i64 %1, ptr %4, align 8, !tbaa !43
  %5 = load ptr, ptr %3, align 8, !tbaa !3
  %6 = load i64, ptr %4, align 8, !tbaa !43
  call void @lv_memset(ptr noundef %5, i8 noundef zeroext 0, i64 noundef %6)
  ret void
}

; Function Attrs: nounwind uwtable
define ptr @lv_chart_add_series(ptr noundef %0, i24 %1, i32 noundef %2) #0 {
  %4 = alloca ptr, align 8
  %5 = alloca %struct.lv_color_t, align 1
  %6 = alloca ptr, align 8
  %7 = alloca i32, align 4
  %8 = alloca ptr, align 8
  %9 = alloca ptr, align 8
  %10 = alloca i32, align 4
  %11 = alloca i32, align 4
  %12 = alloca i32, align 4
  %13 = alloca ptr, align 8
  store i24 %1, ptr %5, align 1
  store ptr %0, ptr %6, align 8, !tbaa !3
  store i32 %2, ptr %7, align 4, !tbaa !7
  br label %14

14:                                               ; preds = %3
  br label %15

15:                                               ; preds = %14
  br label %16

16:                                               ; preds = %15
  br label %17

17:                                               ; preds = %16
  call void @llvm.lifetime.start.p0(i64 8, ptr %8) #5
  %18 = load ptr, ptr %6, align 8, !tbaa !3
  store ptr %18, ptr %8, align 8, !tbaa !3
  call void @llvm.lifetime.start.p0(i64 8, ptr %9) #5
  %19 = load ptr, ptr %8, align 8, !tbaa !3
  %20 = getelementptr inbounds nuw %struct._lv_chart_t, ptr %19, i32 0, i32 1
  %21 = call ptr @lv_ll_ins_tail(ptr noundef %20)
  store ptr %21, ptr %9, align 8, !tbaa !3
  br label %22

22:                                               ; preds = %17
  %23 = load ptr, ptr %9, align 8, !tbaa !3
  %24 = icmp ne ptr %23, null
  br i1 %24, label %31, label %25

25:                                               ; preds = %22
  br label %26

26:                                               ; preds = %25
  br label %27

27:                                               ; preds = %26
  br label %28

28:                                               ; preds = %27
  br label %29

29:                                               ; preds = %30, %28
  br label %30

30:                                               ; preds = %29
  br label %29

31:                                               ; preds = %22
  br label %32

32:                                               ; preds = %31
  br label %33

33:                                               ; preds = %32
  %34 = load ptr, ptr %9, align 8, !tbaa !3
  %35 = icmp eq ptr %34, null
  br i1 %35, label %36, label %37

36:                                               ; preds = %33
  store ptr null, ptr %4, align 8
  store i32 1, ptr %10, align 4
  br label %184

37:                                               ; preds = %33
  %38 = load ptr, ptr %9, align 8, !tbaa !3
  call void @lv_memzero(ptr noundef %38, i64 noundef 32)
  %39 = load ptr, ptr %8, align 8, !tbaa !3
  %40 = getelementptr inbounds nuw %struct._lv_chart_t, ptr %39, i32 0, i32 10
  %41 = load i32, ptr %40, align 4, !tbaa !16
  %42 = zext i32 %41 to i64
  %43 = mul i64 4, %42
  %44 = call ptr @lv_malloc(i64 noundef %43)
  %45 = load ptr, ptr %9, align 8, !tbaa !3
  %46 = getelementptr inbounds nuw %struct._lv_chart_series_t, ptr %45, i32 0, i32 1
  store ptr %44, ptr %46, align 8, !tbaa !21
  br label %47

47:                                               ; preds = %37
  %48 = load ptr, ptr %9, align 8, !tbaa !3
  %49 = getelementptr inbounds nuw %struct._lv_chart_series_t, ptr %48, i32 0, i32 1
  %50 = load ptr, ptr %49, align 8, !tbaa !21
  %51 = icmp ne ptr %50, null
  br i1 %51, label %58, label %52

52:                                               ; preds = %47
  br label %53

53:                                               ; preds = %52
  br label %54

54:                                               ; preds = %53
  br label %55

55:                                               ; preds = %54
  br label %56

56:                                               ; preds = %57, %55
  br label %57

57:                                               ; preds = %56
  br label %56

58:                                               ; preds = %47
  br label %59

59:                                               ; preds = %58
  br label %60

60:                                               ; preds = %59
  %61 = load ptr, ptr %8, align 8, !tbaa !3
  %62 = getelementptr inbounds nuw %struct._lv_chart_t, ptr %61, i32 0, i32 11
  %63 = load i8, ptr %62, align 8
  %64 = and i8 %63, 7
  %65 = zext i8 %64 to i32
  %66 = icmp eq i32 %65, 3
  br i1 %66, label %67, label %103

67:                                               ; preds = %60
  %68 = load ptr, ptr %8, align 8, !tbaa !3
  %69 = getelementptr inbounds nuw %struct._lv_chart_t, ptr %68, i32 0, i32 10
  %70 = load i32, ptr %69, align 4, !tbaa !16
  %71 = zext i32 %70 to i64
  %72 = mul i64 4, %71
  %73 = call ptr @lv_malloc(i64 noundef %72)
  %74 = load ptr, ptr %9, align 8, !tbaa !3
  %75 = getelementptr inbounds nuw %struct._lv_chart_series_t, ptr %74, i32 0, i32 0
  store ptr %73, ptr %75, align 8, !tbaa !24
  br label %76

76:                                               ; preds = %67
  %77 = load ptr, ptr %9, align 8, !tbaa !3
  %78 = getelementptr inbounds nuw %struct._lv_chart_series_t, ptr %77, i32 0, i32 0
  %79 = load ptr, ptr %78, align 8, !tbaa !24
  %80 = icmp ne ptr %79, null
  br i1 %80, label %87, label %81

81:                                               ; preds = %76
  br label %82

82:                                               ; preds = %81
  br label %83

83:                                               ; preds = %82
  br label %84

84:                                               ; preds = %83
  br label %85

85:                                               ; preds = %86, %84
  br label %86

86:                                               ; preds = %85
  br label %85

87:                                               ; preds = %76
  br label %88

88:                                               ; preds = %87
  br label %89

89:                                               ; preds = %88
  %90 = load ptr, ptr %9, align 8, !tbaa !3
  %91 = getelementptr inbounds nuw %struct._lv_chart_series_t, ptr %90, i32 0, i32 0
  %92 = load ptr, ptr %91, align 8, !tbaa !24
  %93 = icmp eq ptr null, %92
  br i1 %93, label %94, label %102

94:                                               ; preds = %89
  %95 = load ptr, ptr %9, align 8, !tbaa !3
  %96 = getelementptr inbounds nuw %struct._lv_chart_series_t, ptr %95, i32 0, i32 1
  %97 = load ptr, ptr %96, align 8, !tbaa !21
  call void @lv_free(ptr noundef %97)
  %98 = load ptr, ptr %8, align 8, !tbaa !3
  %99 = getelementptr inbounds nuw %struct._lv_chart_t, ptr %98, i32 0, i32 1
  %100 = load ptr, ptr %9, align 8, !tbaa !3
  call void @lv_ll_remove(ptr noundef %99, ptr noundef %100)
  %101 = load ptr, ptr %9, align 8, !tbaa !3
  call void @lv_free(ptr noundef %101)
  store ptr null, ptr %4, align 8
  store i32 1, ptr %10, align 4
  br label %184

102:                                              ; preds = %89
  br label %106

103:                                              ; preds = %60
  %104 = load ptr, ptr %9, align 8, !tbaa !3
  %105 = getelementptr inbounds nuw %struct._lv_chart_series_t, ptr %104, i32 0, i32 0
  store ptr null, ptr %105, align 8, !tbaa !24
  br label %106

106:                                              ; preds = %103, %102
  %107 = load ptr, ptr %9, align 8, !tbaa !3
  %108 = getelementptr inbounds nuw %struct._lv_chart_series_t, ptr %107, i32 0, i32 1
  %109 = load ptr, ptr %108, align 8, !tbaa !21
  %110 = icmp eq ptr %109, null
  br i1 %110, label %111, label %127

111:                                              ; preds = %106
  %112 = load ptr, ptr %9, align 8, !tbaa !3
  %113 = getelementptr inbounds nuw %struct._lv_chart_series_t, ptr %112, i32 0, i32 0
  %114 = load ptr, ptr %113, align 8, !tbaa !24
  %115 = icmp ne ptr %114, null
  br i1 %115, label %116, label %122

116:                                              ; preds = %111
  %117 = load ptr, ptr %9, align 8, !tbaa !3
  %118 = getelementptr inbounds nuw %struct._lv_chart_series_t, ptr %117, i32 0, i32 0
  %119 = load ptr, ptr %118, align 8, !tbaa !24
  call void @lv_free(ptr noundef %119)
  %120 = load ptr, ptr %9, align 8, !tbaa !3
  %121 = getelementptr inbounds nuw %struct._lv_chart_series_t, ptr %120, i32 0, i32 0
  store ptr null, ptr %121, align 8, !tbaa !24
  br label %122

122:                                              ; preds = %116, %111
  %123 = load ptr, ptr %8, align 8, !tbaa !3
  %124 = getelementptr inbounds nuw %struct._lv_chart_t, ptr %123, i32 0, i32 1
  %125 = load ptr, ptr %9, align 8, !tbaa !3
  call void @lv_ll_remove(ptr noundef %124, ptr noundef %125)
  %126 = load ptr, ptr %9, align 8, !tbaa !3
  call void @lv_free(ptr noundef %126)
  store ptr null, ptr %4, align 8
  store i32 1, ptr %10, align 4
  br label %184

127:                                              ; preds = %106
  %128 = load ptr, ptr %9, align 8, !tbaa !3
  %129 = getelementptr inbounds nuw %struct._lv_chart_series_t, ptr %128, i32 0, i32 2
  call void @llvm.memcpy.p0.p0.i64(ptr align 8 %129, ptr align 1 %5, i64 3, i1 false), !tbaa.struct !41
  %130 = load ptr, ptr %9, align 8, !tbaa !3
  %131 = getelementptr inbounds nuw %struct._lv_chart_series_t, ptr %130, i32 0, i32 3
  store i32 0, ptr %131, align 4, !tbaa !32
  %132 = load ptr, ptr %9, align 8, !tbaa !3
  %133 = getelementptr inbounds nuw %struct._lv_chart_series_t, ptr %132, i32 0, i32 4
  %134 = load i8, ptr %133, align 8
  %135 = and i8 %134, -5
  %136 = or i8 %135, 0
  store i8 %136, ptr %133, align 8
  %137 = load ptr, ptr %9, align 8, !tbaa !3
  %138 = getelementptr inbounds nuw %struct._lv_chart_series_t, ptr %137, i32 0, i32 4
  %139 = load i8, ptr %138, align 8
  %140 = and i8 %139, -2
  %141 = or i8 %140, 0
  store i8 %141, ptr %138, align 8
  %142 = load i32, ptr %7, align 4, !tbaa !7
  %143 = and i32 %142, 4
  %144 = icmp ne i32 %143, 0
  %145 = select i1 %144, i32 1, i32 0
  %146 = load ptr, ptr %9, align 8, !tbaa !3
  %147 = getelementptr inbounds nuw %struct._lv_chart_series_t, ptr %146, i32 0, i32 4
  %148 = trunc i32 %145 to i8
  %149 = load i8, ptr %147, align 8
  %150 = and i8 %148, 1
  %151 = shl i8 %150, 3
  %152 = and i8 %149, -9
  %153 = or i8 %152, %151
  store i8 %153, ptr %147, align 8
  %154 = load i32, ptr %7, align 4, !tbaa !7
  %155 = and i32 %154, 1
  %156 = icmp ne i32 %155, 0
  %157 = select i1 %156, i32 1, i32 0
  %158 = load ptr, ptr %9, align 8, !tbaa !3
  %159 = getelementptr inbounds nuw %struct._lv_chart_series_t, ptr %158, i32 0, i32 4
  %160 = trunc i32 %157 to i8
  %161 = load i8, ptr %159, align 8
  %162 = and i8 %160, 1
  %163 = shl i8 %162, 4
  %164 = and i8 %161, -17
  %165 = or i8 %164, %163
  store i8 %165, ptr %159, align 8
  call void @llvm.lifetime.start.p0(i64 4, ptr %11) #5
  call void @llvm.lifetime.start.p0(i64 4, ptr %12) #5
  store i32 2147483647, ptr %12, align 4, !tbaa !7
  call void @llvm.lifetime.start.p0(i64 8, ptr %13) #5
  %166 = load ptr, ptr %9, align 8, !tbaa !3
  %167 = getelementptr inbounds nuw %struct._lv_chart_series_t, ptr %166, i32 0, i32 1
  %168 = load ptr, ptr %167, align 8, !tbaa !21
  store ptr %168, ptr %13, align 8, !tbaa !3
  store i32 0, ptr %11, align 4, !tbaa !7
  br label %169

169:                                              ; preds = %179, %127
  %170 = load i32, ptr %11, align 4, !tbaa !7
  %171 = load ptr, ptr %8, align 8, !tbaa !3
  %172 = getelementptr inbounds nuw %struct._lv_chart_t, ptr %171, i32 0, i32 10
  %173 = load i32, ptr %172, align 4, !tbaa !16
  %174 = icmp ult i32 %170, %173
  br i1 %174, label %175, label %182

175:                                              ; preds = %169
  %176 = load ptr, ptr %13, align 8, !tbaa !3
  store i32 2147483647, ptr %176, align 4, !tbaa !7
  %177 = load ptr, ptr %13, align 8, !tbaa !3
  %178 = getelementptr inbounds nuw i32, ptr %177, i32 1
  store ptr %178, ptr %13, align 8, !tbaa !3
  br label %179

179:                                              ; preds = %175
  %180 = load i32, ptr %11, align 4, !tbaa !7
  %181 = add i32 %180, 1
  store i32 %181, ptr %11, align 4, !tbaa !7
  br label %169, !llvm.loop !42

182:                                              ; preds = %169
  %183 = load ptr, ptr %9, align 8, !tbaa !3
  store ptr %183, ptr %4, align 8
  store i32 1, ptr %10, align 4
  call void @llvm.lifetime.end.p0(i64 8, ptr %13) #5
  call void @llvm.lifetime.end.p0(i64 4, ptr %12) #5
  call void @llvm.lifetime.end.p0(i64 4, ptr %11) #5
  br label %184

184:                                              ; preds = %182, %122, %94, %36
  call void @llvm.lifetime.end.p0(i64 8, ptr %9) #5
  call void @llvm.lifetime.end.p0(i64 8, ptr %8) #5
  %185 = load ptr, ptr %4, align 8
  ret ptr %185
}