; Function Attrs: nounwind uwtable
define ptr @lv_chart_add_series(ptr noundef %0, i24 %1, i32 noundef %2) local_unnamed_addr #0 {
  %4 = getelementptr inbounds nuw i8, ptr %0, i64 64
  %5 = tail call ptr @lv_ll_ins_tail(ptr noundef nonnull %4) #8
  %.not = icmp eq ptr %5, null
  br i1 %.not, label %.preheader, label %6

.preheader:                                       ; preds = %3, %.preheader
  br label %.preheader

6:                                                ; preds = %3
  tail call void @lv_memset(ptr noundef nonnull %5, i8 noundef zeroext 0, i64 noundef 32) #8
  %7 = getelementptr inbounds nuw i8, ptr %0, i64 156
  %8 = load i32, ptr %7, align 4, !tbaa !15
  %9 = zext i32 %8 to i64
  %10 = shl nuw nsw i64 %9, 2
  %11 = tail call ptr @lv_malloc(i64 noundef %10) #8
  %12 = getelementptr inbounds nuw i8, ptr %5, i64 8
  store ptr %11, ptr %12, align 8, !tbaa !18
  %.not44 = icmp eq ptr %11, null
  br i1 %.not44, label %.preheader49, label %13

.preheader49:                                     ; preds = %6, %.preheader49
  br label %.preheader49

13:                                               ; preds = %6
  %14 = getelementptr inbounds nuw i8, ptr %0, i64 160
  %15 = load i8, ptr %14, align 8
  %16 = and i8 %15, 7
  %17 = icmp eq i8 %16, 3
  br i1 %17, label %18, label %.thread

18:                                               ; preds = %13
  %19 = load i32, ptr %7, align 4, !tbaa !15
  %20 = zext i32 %19 to i64
  %21 = shl nuw nsw i64 %20, 2
  %22 = tail call ptr @lv_malloc(i64 noundef %21) #8
  store ptr %22, ptr %5, align 8, !tbaa !21
  %.not45 = icmp eq ptr %22, null
  br i1 %.not45, label %.preheader50, label %23

.preheader50:                                     ; preds = %18, %.preheader50
  br label %.preheader50

.thread:                                          ; preds = %13
  store ptr null, ptr %5, align 8, !tbaa !21
  br label %26

23:                                               ; preds = %18
  %.pre = load ptr, ptr %12, align 8, !tbaa !18
  %24 = icmp eq ptr %.pre, null
  br i1 %24, label %25, label %26

25:                                               ; preds = %23
  tail call void @lv_free(ptr noundef nonnull %22) #8
  store ptr null, ptr %5, align 8, !tbaa !21
  tail call void @lv_ll_remove(ptr noundef nonnull %4, ptr noundef nonnull %5) #8
  tail call void @lv_free(ptr noundef nonnull %5) #8
  br label %.loopexit

26:                                               ; preds = %.thread, %23
  %27 = phi ptr [ %11, %.thread ], [ %.pre, %23 ]
  %28 = getelementptr inbounds nuw i8, ptr %5, i64 16
  store i24 %1, ptr %28, align 8
  %29 = getelementptr inbounds nuw i8, ptr %5, i64 20
  store i32 0, ptr %29, align 4, !tbaa !66
  %30 = getelementptr inbounds nuw i8, ptr %5, i64 24
  %31 = load i8, ptr %30, align 8
  %32 = trunc i32 %2 to i8
  %33 = shl i8 %32, 1
  %34 = and i8 %33, 8
  %35 = and i8 %31, -30
  %36 = shl i8 %32, 4
  %37 = and i8 %36, 16
  %38 = or disjoint i8 %37, %34
  %39 = or disjoint i8 %38, %35
  store i8 %39, ptr %30, align 8
  %40 = load i32, ptr %7, align 4, !tbaa !15
  %.not53 = icmp eq i32 %40, 0
  br i1 %.not53, label %.loopexit, label %.lr.ph

.lr.ph:                                           ; preds = %26, %.lr.ph
  %.052 = phi ptr [ %41, %.lr.ph ], [ %27, %26 ]
  %.04151 = phi i32 [ %42, %.lr.ph ], [ 0, %26 ]
  store i32 2147483647, ptr %.052, align 4, !tbaa !3
  %41 = getelementptr inbounds nuw i8, ptr %.052, i64 4
  %42 = add nuw i32 %.04151, 1
  %43 = load i32, ptr %7, align 4, !tbaa !15
  %44 = icmp ult i32 %42, %43
  br i1 %44, label %.lr.ph, label %.loopexit, !llvm.loop !74

.loopexit:                                        ; preds = %.lr.ph, %26, %25
  %.040 = phi ptr [ null, %25 ], [ %5, %26 ], [ %5, %.lr.ph ]
  ret ptr %.040
}